; Function Attrs: mustprogress nounwind uwtable
define void @_ZN19OpenColorIO_v2_4dev15PlanarImageDescD2Ev(ptr nocapture noundef nonnull align 8 dereferenceable(16) %this) unnamed_addr #12 align 2 {
entry:
  store ptr getelementptr inbounds ({ [15 x ptr] }, ptr @_ZTVN19OpenColorIO_v2_4dev15PlanarImageDescE, i64 0, i32 0, i64 2), ptr %this, align 8
  %m_impl = getelementptr inbounds i8, ptr %this, i64 8
  %0 = load ptr, ptr %m_impl, align 8
  %isnull = icmp eq ptr %0, null
  br i1 %isnull, label %delete.end, label %delete.notnull

delete.notnull:                                   ; preds = %entry
  tail call void @_ZdlPv(ptr noundef nonnull %0) #23
  br label %delete.end

delete.end:                                       ; preds = %delete.notnull, %entry
  store ptr null, ptr %m_impl, align 8
  ret void
}